; Function Attrs: nounwind uwtable
define noalias noundef ptr @Abc_NtkTestCreateRequired(i32 noundef %0) local_unnamed_addr #0 {
  %2 = tail call noalias dereferenceable_or_null(16) ptr @malloc(i64 noundef 16) #13
  %3 = add i32 %0, -1
  %or.cond.i = icmp ult i32 %3, 15
  %spec.store.select.i = select i1 %or.cond.i, i32 16, i32 %0
  %4 = getelementptr inbounds nuw i8, ptr %2, i64 4
  store i32 0, ptr %4, align 4
  store i32 %spec.store.select.i, ptr %2, align 8
  %.not.i = icmp eq i32 %spec.store.select.i, 0
  br i1 %.not.i, label %Vec_FltAlloc.exit, label %5

5:                                                ; preds = %1
  %6 = sext i32 %spec.store.select.i to i64
  %7 = shl nsw i64 %6, 2
  %8 = tail call noalias ptr @malloc(i64 noundef %7) #13
  br label %Vec_FltAlloc.exit

Vec_FltAlloc.exit:                                ; preds = %1, %5
  %9 = phi ptr [ %8, %5 ], [ null, %1 ]
  %10 = getelementptr inbounds nuw i8, ptr %2, i64 8
  store ptr %9, ptr %10, align 8
  %11 = icmp sgt i32 %0, 0
  br i1 %11, label %.lr.ph, label %._crit_edge

.lr.ph:                                           ; preds = %Vec_FltAlloc.exit, %Vec_FltPush.exit
  %.06 = phi i32 [ %41, %Vec_FltPush.exit ], [ 0, %Vec_FltAlloc.exit ]
  %12 = add nuw i32 %.06, 100
  %13 = uitofp i32 %12 to float
  %14 = load i32, ptr %4, align 4
  %15 = load i32, ptr %2, align 8
  %16 = icmp eq i32 %14, %15
  br i1 %16, label %17, label %.Vec_FltGrow.exit11_crit_edge.i

.Vec_FltGrow.exit11_crit_edge.i:                  ; preds = %.lr.ph
  %.pre.i = load ptr, ptr %10, align 8
  br label %Vec_FltPush.exit

17:                                               ; preds = %.lr.ph
  %18 = icmp slt i32 %14, 16
  br i1 %18, label %19, label %26

19:                                               ; preds = %17
  %20 = load ptr, ptr %10, align 8
  %.not9.i.i = icmp eq ptr %20, null
  br i1 %.not9.i.i, label %23, label %21

21:                                               ; preds = %19
  %22 = tail call dereferenceable_or_null(64) ptr @realloc(ptr noundef nonnull %20, i64 noundef 64) #12
  br label %Vec_FltGrow.exit.i

23:                                               ; preds = %19
  %24 = tail call noalias dereferenceable_or_null(64) ptr @malloc(i64 noundef 64) #13
  br label %Vec_FltGrow.exit.i

Vec_FltGrow.exit.i:                               ; preds = %23, %21
  %25 = phi ptr [ %22, %21 ], [ %24, %23 ]
  store ptr %25, ptr %10, align 8
  store i32 16, ptr %2, align 8
  br label %Vec_FltPush.exit

26:                                               ; preds = %17
  %27 = shl nuw nsw i32 %14, 1
  %28 = load ptr, ptr %10, align 8
  %.not9.i10.i = icmp eq ptr %28, null
  %29 = zext nneg i32 %27 to i64
  %30 = shl nuw nsw i64 %29, 2
  br i1 %.not9.i10.i, label %33, label %31

31:                                               ; preds = %26
  %32 = tail call ptr @realloc(ptr noundef nonnull %28, i64 noundef %30) #12
  br label %35

33:                                               ; preds = %26
  %34 = tail call noalias ptr @malloc(i64 noundef %30) #13
  br label %35

35:                                               ; preds = %33, %31
  %36 = phi ptr [ %32, %31 ], [ %34, %33 ]
  store ptr %36, ptr %10, align 8
  store i32 %27, ptr %2, align 8
  br label %Vec_FltPush.exit

Vec_FltPush.exit:                                 ; preds = %.Vec_FltGrow.exit11_crit_edge.i, %Vec_FltGrow.exit.i, %35
  %37 = phi ptr [ %.pre.i, %.Vec_FltGrow.exit11_crit_edge.i ], [ %36, %35 ], [ %25, %Vec_FltGrow.exit.i ]
  %38 = add nsw i32 %14, 1
  store i32 %38, ptr %4, align 4
  %39 = sext i32 %14 to i64
  %40 = getelementptr inbounds float, ptr %37, i64 %39
  store float %13, ptr %40, align 4
  %41 = add nuw nsw i32 %.06, 1
  %exitcond.not = icmp eq i32 %41, %0
  br i1 %exitcond.not, label %._crit_edge, label %.lr.ph, !llvm.loop !9

._crit_edge:                                      ; preds = %Vec_FltPush.exit, %Vec_FltAlloc.exit
  ret ptr %2
}